target datalayout = "e-m:e-p270:32:32-p271:32:32-p272:64:64-i64:64-i128:128-f80:128-n8:16:32:64-S128"
target triple = "x86_64-pc-linux-gnu"

%"class.icu_77::RuleBasedTimeZone" = type <{ %"class.icu_77::BasicTimeZone", ptr, ptr, ptr, ptr, i8, [7 x i8] }>
%"class.icu_77::BasicTimeZone" = type { %"class.icu_77::TimeZone" }
%"class.icu_77::TimeZone" = type { %"class.icu_77::UObject", %"class.icu_77::UnicodeString" }
%"class.icu_77::UObject" = type { ptr }
%"class.icu_77::UnicodeString" = type { %"class.icu_77::Replaceable", %"union.icu_77::UnicodeString::StackBufferOrFields" }
%"class.icu_77::Replaceable" = type { %"class.icu_77::UObject" }
%"union.icu_77::UnicodeString::StackBufferOrFields" = type { %struct.anon.0, [32 x i8] }
%struct.anon.0 = type { i16, i32, i32, ptr }

; Function Attrs: noinline noreturn nounwind uwtable
define linkonce_odr hidden void @__clang_call_terminate(ptr noundef %0) #5 comdat {
  %2 = call ptr @__cxa_begin_catch(ptr %0) #12
  call void @_ZSt9terminatev() #14
  unreachable
}

; Function Attrs: mustprogress nounwind uwtable
define void @_ZN6icu_7717RuleBasedTimeZone11deleteRulesEv(ptr noundef nonnull align 8 dereferenceable(105) %0) #0 align 2 {
  %2 = alloca ptr, align 8
  store ptr %0, ptr %2, align 8, !tbaa !3
  %3 = load ptr, ptr %2, align 8
  %4 = getelementptr inbounds nuw %"class.icu_77::RuleBasedTimeZone", ptr %3, i32 0, i32 1
  %5 = load ptr, ptr %4, align 8, !tbaa !14
  %6 = icmp eq ptr %5, null
  br i1 %6, label %11, label %7

7:                                                ; preds = %1
  %8 = load ptr, ptr %5, align 8, !tbaa !12
  %9 = getelementptr inbounds ptr, ptr %8, i64 1
  %10 = load ptr, ptr %9, align 8
  call void %10(ptr noundef nonnull align 8 dereferenceable(80) %5) #12
  br label %11

11:                                               ; preds = %7, %1
  %12 = getelementptr inbounds nuw %"class.icu_77::RuleBasedTimeZone", ptr %3, i32 0, i32 1
  store ptr null, ptr %12, align 8, !tbaa !14
  %13 = getelementptr inbounds nuw %"class.icu_77::RuleBasedTimeZone", ptr %3, i32 0, i32 2
  %14 = load ptr, ptr %13, align 8, !tbaa !22
  %15 = icmp ne ptr %14, null
  br i1 %15, label %16, label %26

16:                                               ; preds = %11
  %17 = getelementptr inbounds nuw %"class.icu_77::RuleBasedTimeZone", ptr %3, i32 0, i32 2
  %18 = load ptr, ptr %17, align 8, !tbaa !22
  %19 = icmp eq ptr %18, null
  br i1 %19, label %24, label %20

20:                                               ; preds = %16
  %21 = load ptr, ptr %18, align 8, !tbaa !12
  %22 = getelementptr inbounds ptr, ptr %21, i64 1
  %23 = load ptr, ptr %22, align 8
  call void %23(ptr noundef nonnull align 8 dereferenceable(40) %18) #12
  br label %24

24:                                               ; preds = %20, %16
  %25 = getelementptr inbounds nuw %"class.icu_77::RuleBasedTimeZone", ptr %3, i32 0, i32 2
  store ptr null, ptr %25, align 8, !tbaa !22
  br label %26

26:                                               ; preds = %24, %11
  %27 = getelementptr inbounds nuw %"class.icu_77::RuleBasedTimeZone", ptr %3, i32 0, i32 3
  %28 = load ptr, ptr %27, align 8, !tbaa !23
  %29 = icmp ne ptr %28, null
  br i1 %29, label %30, label %40

30:                                               ; preds = %26
  %31 = getelementptr inbounds nuw %"class.icu_77::RuleBasedTimeZone", ptr %3, i32 0, i32 3
  %32 = load ptr, ptr %31, align 8, !tbaa !23
  %33 = icmp eq ptr %32, null
  br i1 %33, label %38, label %34

34:                                               ; preds = %30
  %35 = load ptr, ptr %32, align 8, !tbaa !12
  %36 = getelementptr inbounds ptr, ptr %35, i64 1
  %37 = load ptr, ptr %36, align 8
  call void %37(ptr noundef nonnull align 8 dereferenceable(40) %32) #12
  br label %38

38:                                               ; preds = %34, %30
  %39 = getelementptr inbounds nuw %"class.icu_77::RuleBasedTimeZone", ptr %3, i32 0, i32 3
  store ptr null, ptr %39, align 8, !tbaa !23
  br label %40

40:                                               ; preds = %38, %26
  ret void
}

; Function Attrs: mustprogress nounwind uwtable
define void @_ZN6icu_7717RuleBasedTimeZone17deleteTransitionsEv(ptr noundef nonnull align 8 dereferenceable(105) %0) #0 align 2 {
  %2 = alloca ptr, align 8
  store ptr %0, ptr %2, align 8, !tbaa !3
  %3 = load ptr, ptr %2, align 8
  %4 = getelementptr inbounds nuw %"class.icu_77::RuleBasedTimeZone", ptr %3, i32 0, i32 4
  %5 = load ptr, ptr %4, align 8, !tbaa !24
  %6 = icmp eq ptr %5, null
  br i1 %6, label %11, label %7

7:                                                ; preds = %1
  %8 = load ptr, ptr %5, align 8, !tbaa !12
  %9 = getelementptr inbounds ptr, ptr %8, i64 1
  %10 = load ptr, ptr %9, align 8
  call void %10(ptr noundef nonnull align 8 dereferenceable(40) %5) #12
  br label %11

11:                                               ; preds = %7, %1
  %12 = getelementptr inbounds nuw %"class.icu_77::RuleBasedTimeZone", ptr %3, i32 0, i32 4
  store ptr null, ptr %12, align 8, !tbaa !24
  ret void
}

; Function Attrs: mustprogress nounwind uwtable
define void @_ZN6icu_7717RuleBasedTimeZoneD2Ev(ptr noundef nonnull align 8 dereferenceable(105) %0) unnamed_addr #0 align 2 personality ptr @__gxx_personality_v0 {
  %2 = alloca ptr, align 8
  store ptr %0, ptr %2, align 8, !tbaa !3
  %3 = load ptr, ptr %2, align 8
  store ptr getelementptr inbounds inrange(-16, 176) ({ [24 x ptr] }, ptr @_ZTVN6icu_7717RuleBasedTimeZoneE, i32 0, i32 0, i32 2), ptr %3, align 8, !tbaa !12
  invoke void @_ZN6icu_7717RuleBasedTimeZone17deleteTransitionsEv(ptr noundef nonnull align 8 dereferenceable(105) %3)
          to label %4 unwind label %6

4:                                                ; preds = %1
  invoke void @_ZN6icu_7717RuleBasedTimeZone11deleteRulesEv(ptr noundef nonnull align 8 dereferenceable(105) %3)
          to label %5 unwind label %6

5:                                                ; preds = %4
  call void @_ZN6icu_7713BasicTimeZoneD2Ev(ptr noundef nonnull align 8 dereferenceable(72) %3) #12
  ret void

6:                                                ; preds = %4, %1
  %7 = landingpad { ptr, i32 }
          catch ptr null
  %8 = extractvalue { ptr, i32 } %7, 0
  call void @__clang_call_terminate(ptr %8) #14
  unreachable
}