; Function Attrs: mustprogress nounwind uwtable
define void @_ZN6icu_7717RuleBasedTimeZoneD2Ev(ptr noundef nonnull align 8 dereferenceable(105) initializes((0, 8)) %0) unnamed_addr #5 align 2 personality ptr @__gxx_personality_v0 {
  store ptr getelementptr inbounds nuw inrange(-16, 176) (i8, ptr @_ZTVN6icu_7717RuleBasedTimeZoneE, i64 16), ptr %0, align 8, !tbaa !3
  %2 = getelementptr inbounds nuw i8, ptr %0, i64 96
  %3 = load ptr, ptr %2, align 8, !tbaa !17
  %4 = icmp eq ptr %3, null
  br i1 %4, label %_ZN6icu_7717RuleBasedTimeZone17deleteTransitionsEv.exit, label %5

5:                                                ; preds = %1
  %6 = load ptr, ptr %3, align 8, !tbaa !3
  %7 = getelementptr inbounds nuw i8, ptr %6, i64 8
  %8 = load ptr, ptr %7, align 8
  tail call void %8(ptr noundef nonnull align 8 dereferenceable(40) %3) #14
  br label %_ZN6icu_7717RuleBasedTimeZone17deleteTransitionsEv.exit

_ZN6icu_7717RuleBasedTimeZone17deleteTransitionsEv.exit: ; preds = %1, %5
  store ptr null, ptr %2, align 8, !tbaa !17
  %9 = getelementptr inbounds nuw i8, ptr %0, i64 72
  %10 = load ptr, ptr %9, align 8, !tbaa !6
  %11 = icmp eq ptr %10, null
  br i1 %11, label %16, label %12

12:                                               ; preds = %_ZN6icu_7717RuleBasedTimeZone17deleteTransitionsEv.exit
  %13 = load ptr, ptr %10, align 8, !tbaa !3
  %14 = getelementptr inbounds nuw i8, ptr %13, i64 8
  %15 = load ptr, ptr %14, align 8
  tail call void %15(ptr noundef nonnull align 8 dereferenceable(80) %10) #14
  br label %16

16:                                               ; preds = %12, %_ZN6icu_7717RuleBasedTimeZone17deleteTransitionsEv.exit
  store ptr null, ptr %9, align 8, !tbaa !6
  %17 = getelementptr inbounds nuw i8, ptr %0, i64 80
  %18 = load ptr, ptr %17, align 8, !tbaa !19
  %.not.i = icmp eq ptr %18, null
  br i1 %.not.i, label %23, label %19

19:                                               ; preds = %16
  %20 = load ptr, ptr %18, align 8, !tbaa !3
  %21 = getelementptr inbounds nuw i8, ptr %20, i64 8
  %22 = load ptr, ptr %21, align 8
  tail call void %22(ptr noundef nonnull align 8 dereferenceable(40) %18) #14
  store ptr null, ptr %17, align 8, !tbaa !19
  br label %23

23:                                               ; preds = %19, %16
  %24 = getelementptr inbounds nuw i8, ptr %0, i64 88
  %25 = load ptr, ptr %24, align 8, !tbaa !20
  %.not3.i = icmp eq ptr %25, null
  br i1 %.not3.i, label %_ZN6icu_7717RuleBasedTimeZone11deleteRulesEv.exit, label %26

26:                                               ; preds = %23
  %27 = load ptr, ptr %25, align 8, !tbaa !3
  %28 = getelementptr inbounds nuw i8, ptr %27, i64 8
  %29 = load ptr, ptr %28, align 8
  tail call void %29(ptr noundef nonnull align 8 dereferenceable(40) %25) #14
  store ptr null, ptr %24, align 8, !tbaa !20
  br label %_ZN6icu_7717RuleBasedTimeZone11deleteRulesEv.exit

_ZN6icu_7717RuleBasedTimeZone11deleteRulesEv.exit: ; preds = %23, %26
  tail call void @_ZN6icu_7713BasicTimeZoneD2Ev(ptr noundef nonnull align 8 dereferenceable(72) %0) #14
  ret void
}